target datalayout = "e-m:e-p270:32:32-p271:32:32-p272:64:64-i64:64-i128:128-f80:128-n8:16:32:64-S128"
target triple = "x86_64-pc-linux-gnu"

%struct.AVCodecContext = type { ptr, i32, i32, ptr, i32, i32, ptr, ptr, ptr, i64, i32, i32, ptr, i32, %struct.AVRational, %struct.AVRational, %struct.AVRational, i32, i32, i32, i32, i32, %struct.AVRational, i32, i32, i32, i32, i32, i32, i32, i32, i32, i32, i32, ptr, ptr, i32, float, float, float, float, float, float, float, float, float, i32, i32, i32, i32, i32, i32, i32, i32, i32, i32, i32, i32, ptr, ptr, ptr, i32, i32, i32, i32, i32, i32, i32, i32, i32, i32, %struct.AVChannelLayout, i32, i32, i32, i32, i32, i32, i32, i32, ptr, i32, i32, i32, float, float, i32, i32, i32, i32, i32, ptr, i64, i64, float, float, i32, i32, ptr, ptr, i32, i32, i32, i32, i32, ptr, ptr, ptr, ptr, i32, i32, [8 x i64], i32, i32, i32, i32, i32, i32, i32, ptr, ptr, i32, i32, i32, i32, i32, i32, i32, i32, i32, i32, ptr, ptr, i32, i32, ptr, ptr, ptr, ptr, i32, i32, i64, i32, i32, i64, ptr, i64, ptr, i32, ptr, i32 }
%struct.AVRational = type { i32, i32 }
%struct.AVChannelLayout = type { i32, i32, %union.anon.0, ptr }
%union.anon.0 = type { i64 }
%struct.EightBpsContext = type { ptr, i8, [4 x i8], [256 x i32] }

@.str.2 = private unnamed_addr constant [37 x i8] c"Error: Unsupported color depth: %u.\0A\00", align 1

; Function Attrs: cold nounwind optsize uwtable
define internal i32 @decode_init(ptr noundef %0) #0 {
  %2 = alloca i32, align 4
  %3 = alloca ptr, align 8
  %4 = alloca ptr, align 8
  %5 = alloca i32, align 4
  store ptr %0, ptr %3, align 8, !tbaa !4
  call void @llvm.lifetime.start.p0(i64 8, ptr %4) #7
  %6 = load ptr, ptr %3, align 8, !tbaa !4
  %7 = getelementptr inbounds nuw %struct.AVCodecContext, ptr %6, i32 0, i32 6
  %8 = load ptr, ptr %7, align 8, !tbaa !9
  store ptr %8, ptr %4, align 8, !tbaa !29
  %9 = load ptr, ptr %3, align 8, !tbaa !4
  %10 = load ptr, ptr %4, align 8, !tbaa !29
  %11 = getelementptr inbounds nuw %struct.EightBpsContext, ptr %10, i32 0, i32 0
  store ptr %9, ptr %11, align 8, !tbaa !31
  %12 = load ptr, ptr %3, align 8, !tbaa !4
  %13 = getelementptr inbounds nuw %struct.AVCodecContext, ptr %12, i32 0, i32 114
  %14 = load i32, ptr %13, align 8, !tbaa !33
  switch i32 %14, label %42 [
    i32 8, label %15
    i32 24, label %23
    i32 32, label %37
  ]

15:                                               ; preds = %1
  %16 = load ptr, ptr %3, align 8, !tbaa !4
  %17 = getelementptr inbounds nuw %struct.AVCodecContext, ptr %16, i32 0, i32 23
  store i32 11, ptr %17, align 8, !tbaa !34
  %18 = load ptr, ptr %4, align 8, !tbaa !29
  %19 = getelementptr inbounds nuw %struct.EightBpsContext, ptr %18, i32 0, i32 1
  store i8 1, ptr %19, align 8, !tbaa !35
  %20 = load ptr, ptr %4, align 8, !tbaa !29
  %21 = getelementptr inbounds nuw %struct.EightBpsContext, ptr %20, i32 0, i32 2
  %22 = getelementptr inbounds [4 x i8], ptr %21, i64 0, i64 0
  store i8 0, ptr %22, align 1, !tbaa !36
  br label %47

23:                                               ; preds = %1
  %24 = load ptr, ptr %3, align 8, !tbaa !4
  %25 = getelementptr inbounds nuw %struct.AVCodecContext, ptr %24, i32 0, i32 23
  store i32 71, ptr %25, align 8, !tbaa !34
  %26 = load ptr, ptr %4, align 8, !tbaa !29
  %27 = getelementptr inbounds nuw %struct.EightBpsContext, ptr %26, i32 0, i32 1
  store i8 3, ptr %27, align 8, !tbaa !35
  %28 = load ptr, ptr %4, align 8, !tbaa !29
  %29 = getelementptr inbounds nuw %struct.EightBpsContext, ptr %28, i32 0, i32 2
  %30 = getelementptr inbounds [4 x i8], ptr %29, i64 0, i64 0
  store i8 2, ptr %30, align 1, !tbaa !36
  %31 = load ptr, ptr %4, align 8, !tbaa !29
  %32 = getelementptr inbounds nuw %struct.EightBpsContext, ptr %31, i32 0, i32 2
  %33 = getelementptr inbounds [4 x i8], ptr %32, i64 0, i64 1
  store i8 0, ptr %33, align 1, !tbaa !36
  %34 = load ptr, ptr %4, align 8, !tbaa !29
  %35 = getelementptr inbounds nuw %struct.EightBpsContext, ptr %34, i32 0, i32 2
  %36 = getelementptr inbounds [4 x i8], ptr %35, i64 0, i64 2
  store i8 1, ptr %36, align 1, !tbaa !36
  br label %47

37:                                               ; preds = %1
  %38 = load ptr, ptr %3, align 8, !tbaa !4
  %39 = getelementptr inbounds nuw %struct.AVCodecContext, ptr %38, i32 0, i32 23
  store i32 111, ptr %39, align 8, !tbaa !34
  %40 = load ptr, ptr %4, align 8, !tbaa !29
  %41 = getelementptr inbounds nuw %struct.EightBpsContext, ptr %40, i32 0, i32 1
  store i8 4, ptr %41, align 8, !tbaa !35
  br label %47

42:                                               ; preds = %1
  %43 = load ptr, ptr %3, align 8, !tbaa !4
  %44 = load ptr, ptr %3, align 8, !tbaa !4
  %45 = getelementptr inbounds nuw %struct.AVCodecContext, ptr %44, i32 0, i32 114
  %46 = load i32, ptr %45, align 8, !tbaa !33
  call void (ptr, i32, ptr, ...) @av_log(ptr noundef %43, i32 noundef 16, ptr noundef @.str.2, i32 noundef %46)
  store i32 -1094995529, ptr %2, align 4
  store i32 1, ptr %5, align 4
  br label %66

47:                                               ; preds = %37, %23, %15
  %48 = load ptr, ptr %3, align 8, !tbaa !4
  %49 = getelementptr inbounds nuw %struct.AVCodecContext, ptr %48, i32 0, i32 23
  %50 = load i32, ptr %49, align 8, !tbaa !34
  %51 = icmp eq i32 %50, 111
  br i1 %51, label %52, label %65

52:                                               ; preds = %47
  %53 = load ptr, ptr %4, align 8, !tbaa !29
  %54 = getelementptr inbounds nuw %struct.EightBpsContext, ptr %53, i32 0, i32 2
  %55 = getelementptr inbounds [4 x i8], ptr %54, i64 0, i64 0
  store i8 2, ptr %55, align 1, !tbaa !36
  %56 = load ptr, ptr %4, align 8, !tbaa !29
  %57 = getelementptr inbounds nuw %struct.EightBpsContext, ptr %56, i32 0, i32 2
  %58 = getelementptr inbounds [4 x i8], ptr %57, i64 0, i64 1
  store i8 0, ptr %58, align 1, !tbaa !36
  %59 = load ptr, ptr %4, align 8, !tbaa !29
  %60 = getelementptr inbounds nuw %struct.EightBpsContext, ptr %59, i32 0, i32 2
  %61 = getelementptr inbounds [4 x i8], ptr %60, i64 0, i64 2
  store i8 1, ptr %61, align 1, !tbaa !36
  %62 = load ptr, ptr %4, align 8, !tbaa !29
  %63 = getelementptr inbounds nuw %struct.EightBpsContext, ptr %62, i32 0, i32 2
  %64 = getelementptr inbounds [4 x i8], ptr %63, i64 0, i64 3
  store i8 3, ptr %64, align 1, !tbaa !36
  br label %65

65:                                               ; preds = %52, %47
  store i32 0, ptr %2, align 4
  store i32 1, ptr %5, align 4
  br label %66

66:                                               ; preds = %65, %42
  call void @llvm.lifetime.end.p0(i64 8, ptr %4) #7
  %67 = load i32, ptr %2, align 4
  ret i32 %67
}