; Function Attrs: cold nounwind optsize uwtable
define internal range(i32 -1094995529, 1) i32 @decode_init(ptr noundef %0) #0 {
  %2 = getelementptr inbounds nuw i8, ptr %0, i64 32
  %3 = load ptr, ptr %2, align 8, !tbaa !4
  store ptr %0, ptr %3, align 8, !tbaa !27
  %4 = getelementptr inbounds nuw i8, ptr %0, i64 648
  %5 = load i32, ptr %4, align 8, !tbaa !30
  switch i32 %5, label %19 [
    i32 8, label %6
    i32 24, label %10
    i32 32, label %16
  ]

6:                                                ; preds = %1
  %7 = getelementptr inbounds nuw i8, ptr %0, i64 136
  store i32 11, ptr %7, align 8, !tbaa !31
  %8 = getelementptr inbounds nuw i8, ptr %3, i64 8
  store i8 1, ptr %8, align 8, !tbaa !32
  %9 = getelementptr inbounds nuw i8, ptr %3, i64 9
  store i8 0, ptr %9, align 1, !tbaa !33
  br label %20

10:                                               ; preds = %1
  %11 = getelementptr inbounds nuw i8, ptr %0, i64 136
  store i32 71, ptr %11, align 8, !tbaa !31
  %12 = getelementptr inbounds nuw i8, ptr %3, i64 8
  store i8 3, ptr %12, align 8, !tbaa !32
  %13 = getelementptr inbounds nuw i8, ptr %3, i64 9
  store i8 2, ptr %13, align 1, !tbaa !33
  %14 = getelementptr inbounds nuw i8, ptr %3, i64 10
  store i8 0, ptr %14, align 1, !tbaa !33
  %15 = getelementptr inbounds nuw i8, ptr %3, i64 11
  store i8 1, ptr %15, align 1, !tbaa !33
  br label %20

16:                                               ; preds = %1
  %17 = getelementptr inbounds nuw i8, ptr %0, i64 136
  store i32 111, ptr %17, align 8, !tbaa !31
  %18 = getelementptr inbounds nuw i8, ptr %3, i64 8
  store i8 4, ptr %18, align 8, !tbaa !32
  br label %20

19:                                               ; preds = %1
  tail call void (ptr, i32, ptr, ...) @av_log(ptr noundef nonnull %0, i32 noundef 16, ptr noundef nonnull @.str.2, i32 noundef %5) #6
  br label %29

20:                                               ; preds = %16, %10, %6
  %21 = getelementptr inbounds nuw i8, ptr %0, i64 136
  %22 = load i32, ptr %21, align 8, !tbaa !31
  %23 = icmp eq i32 %22, 111
  br i1 %23, label %24, label %29

24:                                               ; preds = %20
  %25 = getelementptr inbounds nuw i8, ptr %3, i64 9
  store i8 2, ptr %25, align 1, !tbaa !33
  %26 = getelementptr inbounds nuw i8, ptr %3, i64 10
  store i8 0, ptr %26, align 1, !tbaa !33
  %27 = getelementptr inbounds nuw i8, ptr %3, i64 11
  store i8 1, ptr %27, align 1, !tbaa !33
  %28 = getelementptr inbounds nuw i8, ptr %3, i64 12
  store i8 3, ptr %28, align 1, !tbaa !33
  br label %29

29:                                               ; preds = %20, %24, %19
  %.0 = phi i32 [ -1094995529, %19 ], [ 0, %24 ], [ 0, %20 ]
  ret i32 %.0
}